Certificate:
    Data:
        Version: 3 (0x2)
        Serial Number: 4 (0x4)
        Signature Algorithm: sha1WithRSAEncryption
        Issuer: C=cn, ST=hubei, L=wuhan, O=dameng, OU=developer, CN=fhx/emailAddress=fhx@demeng.com
        Validity
            Not Before: Jan  1 00:00:00 2022 GMT
            Not After : Jan  1 00:00:00 2032 GMT
        Subject: C=cn, ST=hubei, O=dameng, OU=developer, CN=SYSSSO/emailAddress=SYSSSO@dameng.com
        Subject Public Key Info:
            Public Key Algorithm: rsaEncryption
                Public-Key: (2048 bit)
                Modulus:
                    00:ce:38:d4:3b:ed:c8:08:0f:ee:57:c8:00:ab:16:
                    2a:9d:41:39:43:d4:e2:e4:83:04:a5:14:59:73:a8:
                    55:92:aa:4d:0d:57:8a:e9:01:d7:14:08:9b:ba:2b:
                    ea:92:2d:b2:6f:e8:8b:0e:4a:1d:f6:95:7f:d8:5b:
                    63:fd:0d:ff:cd:f4:e0:84:6b:bd:58:de:68:51:3d:
                    a8:2a:88:29:a3:8b:dc:ad:c7:41:11:d8:c5:45:5a:
                    4a:b9:31:a0:94:cb:2e:40:52:31:2f:73:15:28:a5:
                    32:7c:67:65:ed:55:c3:d8:b0:09:94:dd:0f:df:2e:
                    58:34:7f:39:6c:55:ad:3b:6e:c4:d6:0e:f8:10:24:
                    38:26:5f:46:c9:09:e0:57:37:1d:27:8e:11:3a:79:
                    58:cf:db:0d:e7:70:0e:1c:f0:45:72:52:68:47:6a:
                    07:85:51:b1:bc:a9:4c:56:81:6b:03:f4:34:31:a1:
                    e0:8e:35:5e:f8:e9:35:c3:83:0d:9f:95:b7:34:6e:
                    db:c9:b5:22:ce:af:90:17:de:25:a1:f6:40:ed:d0:
                    4a:3c:2f:a7:b8:fc:b4:a4:de:49:8d:ce:b7:4b:56:
                    7f:2b:1b:5c:c2:6e:d1:34:67:18:72:cc:6d:7d:34:
                    bb:71:a3:c8:74:57:c4:0c:cf:a2:cf:d0:71:4f:cb:
                    6c:c9
                Exponent: 65537 (0x10001)
        X509v3 extensions:
            X509v3 Basic Constraints: 
                CA:FALSE
            Netscape Comment: 
                OpenSSL Generated Certificate
            X509v3 Subject Key Identifier: 
                F2:DB:93:25:F1:BB:B8:49:E6:F9:4A:83:51:E6:9E:DC:EE:54:31:CB
            X509v3 Authority Key Identifier: 
                keyid:F3:94:AE:64:1D:02:95:BB:35:CC:F2:4A:D3:73:DD:DF:EF:CB:16:EB

    Signature Algorithm: sha1WithRSAEncryption
        70:51:47:b1:8f:18:22:67:f2:68:6b:51:70:0e:fd:24:09:66:
        c4:e5:9b:d3:6f:2d:f8:ff:5c:86:c2:42:0f:2d:89:35:3d:02:
        58:07:a8:99:f5:b0:23:3a:5b:8c:3a:d8:5b:92:94:b9:17:1e:
        22:a0:04:ab:fe:ac:7c:df:51:1b:c0:b9:65:5e:d7:db:08:70:
        2e:bb:0e:4b:33:aa:b1:cb:36:6a:a4:86:35:b2:52:22:a7:26:
        6c:ab:09:54:77:0d:ca:c3:68:e1:70:26:0b:93:c1:b0:27:ba:
        20:a3:b8:df:5b:06:b0:7d:ce:68:df:54:8f:8b:bd:3c:bf:16:
        5c:cf:25:a0:ab:61:e5:72:10:e7:6f:61:21:b0:75:43:ea:fc:
        d5:c2:b9:7e:a6:af:c4:66:36:60:26:fa:c3:50:d8:be:d4:07:
        9c:63:d9:52:ed:e6:98:3a:56:7a:16:84:05:64:a1:b2:98:ad:
        9c:d2:06:80:d2:64:8c:db:f0:23:4e:1c:a7:68:4c:03:45:73:
        d6:3d:fb:6f:04:dc:88:5f:09:8b:ae:89:3d:d8:1e:53:9f:f2:
        eb:f9:63:70:9a:44:08:b7:1c:8b:de:29:b5:17:26:c9:5c:27:
        56:b2:6c:53:c2:a4:ca:15:55:c3:e6:7a:92:42:a9:3a:d5:d8:
        67:dc:33:01
-----BEGIN CERTIFICATE-----
MIID6jCCAtKgAwIBAgIBBDANBgkqhkiG9w0BAQUFADB/MQswCQYDVQQGEwJjbjEO
MAwGA1UECAwFaHViZWkxDjAMBgNVBAcMBXd1aGFuMQ8wDQYDVQQKDAZkYW1lbmcx
EjAQBgNVBAsMCWRldmVsb3BlcjEMMAoGA1UEAwwDZmh4MR0wGwYJKoZIhvcNAQkB
Fg5maHhAZGVtZW5nLmNvbTAeFw0yMjAxMDEwMDAwMDBaFw0zMjAxMDEwMDAwMDBa
MHUxCzAJBgNVBAYTAmNuMQ4wDAYDVQQIDAVodWJlaTEPMA0GA1UECgwGZGFtZW5n
MRIwEAYDVQQLDAlkZXZlbG9wZXIxDzANBgNVBAMMBlNZU1NTTzEgMB4GCSqGSIb3
DQEJARYRU1lTU1NPQGRhbWVuZy5jb20wggEiMA0GCSqGSIb3DQEBAQUAA4IBDwAw
ggEKAoIBAQDOONQ77cgID+5XyACrFiqdQTlD1OLkgwSlFFlzqFWSqk0NV4rpAdcU
CJu6K+qSLbJv6IsOSh32lX/YW2P9Df/N9OCEa71Y3mhRPagqiCmji9ytx0ER2MVF
Wkq5MaCUyy5AUjEvcxUopTJ8Z2XtVcPYsAmU3Q/fLlg0fzlsVa07bsTWDvgQJDgm
X0bJCeBXNx0njhE6eVjP2w3ncA4c8EVyUmhHageFUbG8qUxWgWsD9DQxoeCONV74
6TXDgw2flbc0btvJtSLOr5AX3iWh9kDt0Eo8L6e4/LSk3kmNzrdLVn8rG1zCbtE0
ZxhyzG19NLtxo8h0V8QMz6LP0HFPy2zJAgMBAAGjezB5MAkGA1UdEwQCMAAwLAYJ
YIZIAYb4QgENBB8WHU9wZW5TU0wgR2VuZXJhdGVkIENlcnRpZmljYXRlMB0GA1Ud
DgQWBBTy25Ml8bu4Seb5SoNR5p7c7lQxyzAfBgNVHSMEGDAWgBTzlK5kHQKVuzXM
8krTc93f78sW6zANBgkqhkiG9w0BAQUFAAOCAQEAcFFHsY8YImfyaGtRcA79JAlm
xOWb028t+P9chsJCDy2JNT0CWAeomfWwIzpbjDrYW5KUuRceIqAEq/6sfN9RG8C5
ZV7X2whwLrsOSzOqscs2aqSGNbJSIqcmbKsJVHcNysNo4XAmC5PBsCe6IKO431sG
sH3OaN9Uj4u9PL8WXM8loKth5XIQ529hIbB1Q+r81cK5fqavxGY2YCb6w1DYvtQH
nGPZUu3mmDpWehaEBWShspitnNIGgNJkjNvwI04cp2hMA0Vz1j37bwTciF8Ji66J
PdgeU5/y6/ljcJpECLcci94ptRcmyVwnVrJsU8KkyhVVw+Z6kkKpOtXYZ9wzAQ==
-----END CERTIFICATE-----
