Certificate:
    Data:
        Version: 3 (0x2)
        Serial Number: 2 (0x2)
        Signature Algorithm: sha1WithRSAEncryption
        Issuer: C=cn, ST=hubei, L=wuhan, O=dameng, OU=developer, CN=fhx/emailAddress=fhx@demeng.com
        Validity
            Not Before: Jan  1 00:00:00 2022 GMT
            Not After : Jan  1 00:00:00 2032 GMT
        Subject: C=cn, ST=hubei, O=dameng, OU=developer, CN=SYSDBA/emailAddress=SYSDBA@dameng.com
        Subject Public Key Info:
            Public Key Algorithm: rsaEncryption
                Public-Key: (2048 bit)
                Modulus:
                    00:c4:2d:aa:60:0e:bb:09:51:be:24:7b:0c:7d:01:
                    3c:28:b7:30:64:7f:ec:2e:77:53:3e:7e:ec:66:95:
                    58:e9:11:57:9a:bf:f4:d9:57:0f:aa:61:2a:e1:31:
                    3b:30:e5:d5:fe:74:cd:a9:fa:74:82:b6:91:ba:80:
                    5c:d3:f4:a7:85:66:88:39:25:cb:05:24:9a:35:f9:
                    a2:17:35:2a:fb:13:0d:12:3a:96:91:9e:e6:bf:ff:
                    1c:96:b4:ab:ac:50:fd:2a:4b:eb:33:a6:76:01:0f:
                    90:75:94:97:16:79:95:fd:32:e7:22:34:68:2c:e0:
                    52:b7:c4:03:85:27:f6:cd:f1:aa:7c:33:9a:72:0c:
                    77:52:19:f0:04:a2:32:8b:1b:97:31:18:44:bb:6f:
                    fd:00:1d:d7:e4:09:25:e3:59:d5:26:36:33:0b:5c:
                    11:10:67:4a:30:87:b2:8e:f4:ac:41:a1:ef:d8:8d:
                    fe:b2:50:de:dc:d0:d9:f8:c2:79:e8:68:bc:7d:64:
                    eb:c8:92:12:95:cf:75:22:d2:71:cf:3c:69:7e:78:
                    21:4f:ac:4f:94:5f:08:c4:a9:0c:da:e1:37:1c:f8:
                    fd:68:6d:d3:74:fa:2b:1f:1c:cb:69:ff:6d:dd:11:
                    db:e6:ed:b6:d8:37:39:6b:57:5d:8c:fd:b7:64:ed:
                    1c:f3
                Exponent: 65537 (0x10001)
        X509v3 extensions:
            X509v3 Basic Constraints: 
                CA:FALSE
            Netscape Comment: 
                OpenSSL Generated Certificate
            X509v3 Subject Key Identifier: 
                ED:48:FB:D5:85:AE:2E:A8:DC:C6:B3:60:F5:50:4B:3C:0C:2C:75:89
            X509v3 Authority Key Identifier: 
                keyid:F3:94:AE:64:1D:02:95:BB:35:CC:F2:4A:D3:73:DD:DF:EF:CB:16:EB

    Signature Algorithm: sha1WithRSAEncryption
        20:e6:d7:b0:f7:b2:48:b0:ae:1d:d8:b1:97:0f:3d:90:e7:81:
        4c:bc:ad:38:cc:74:04:ca:87:f0:68:73:d7:d3:cb:4b:0c:99:
        01:ac:f8:e1:24:b8:90:94:92:2c:ff:71:11:9b:e5:69:bd:98:
        c3:d6:b2:ed:eb:01:45:61:6f:da:b1:b0:81:7c:0d:2b:7d:a7:
        0b:0d:e9:e8:c5:b5:27:86:94:77:91:c3:8a:24:cf:a8:10:07:
        e4:18:b1:c1:a0:80:b7:ca:d5:7a:6c:8a:84:a7:44:db:12:1b:
        05:f0:36:4e:66:03:c3:56:69:9d:3c:8a:bf:51:8b:be:e5:0f:
        51:b0:ed:8b:f4:97:9e:59:e5:45:b3:26:c4:35:26:a1:43:c9:
        25:28:06:5b:7f:ec:8b:20:8c:66:12:aa:44:03:eb:44:65:65:
        5d:4b:54:2d:a2:65:c9:18:30:0b:30:d8:41:28:ff:47:d4:b0:
        be:6b:92:0e:e5:69:d9:85:89:71:68:29:ba:73:12:3e:e0:66:
        ac:7b:28:bc:f9:7f:0e:85:fc:72:b4:6e:ae:4f:f7:59:52:4d:
        18:6a:38:f7:cc:a4:e4:bd:b1:8f:a5:71:10:ca:0b:58:3a:86:
        bd:7f:cd:60:73:48:4d:39:16:a3:b0:19:e6:d5:28:86:9e:bf:
        6b:f9:0a:5d
-----BEGIN CERTIFICATE-----
MIID6jCCAtKgAwIBAgIBAjANBgkqhkiG9w0BAQUFADB/MQswCQYDVQQGEwJjbjEO
MAwGA1UECAwFaHViZWkxDjAMBgNVBAcMBXd1aGFuMQ8wDQYDVQQKDAZkYW1lbmcx
EjAQBgNVBAsMCWRldmVsb3BlcjEMMAoGA1UEAwwDZmh4MR0wGwYJKoZIhvcNAQkB
Fg5maHhAZGVtZW5nLmNvbTAeFw0yMjAxMDEwMDAwMDBaFw0zMjAxMDEwMDAwMDBa
MHUxCzAJBgNVBAYTAmNuMQ4wDAYDVQQIDAVodWJlaTEPMA0GA1UECgwGZGFtZW5n
MRIwEAYDVQQLDAlkZXZlbG9wZXIxDzANBgNVBAMMBlNZU0RCQTEgMB4GCSqGSIb3
DQEJARYRU1lTREJBQGRhbWVuZy5jb20wggEiMA0GCSqGSIb3DQEBAQUAA4IBDwAw
ggEKAoIBAQDELapgDrsJUb4kewx9ATwotzBkf+wud1M+fuxmlVjpEVeav/TZVw+q
YSrhMTsw5dX+dM2p+nSCtpG6gFzT9KeFZog5JcsFJJo1+aIXNSr7Ew0SOpaRnua/
/xyWtKusUP0qS+szpnYBD5B1lJcWeZX9MuciNGgs4FK3xAOFJ/bN8ap8M5pyDHdS
GfAEojKLG5cxGES7b/0AHdfkCSXjWdUmNjMLXBEQZ0owh7KO9KxBoe/Yjf6yUN7c
0Nn4wnnoaLx9ZOvIkhKVz3Ui0nHPPGl+eCFPrE+UXwjEqQza4Tcc+P1obdN0+isf
HMtp/23dEdvm7bbYNzlrV12M/bdk7RzzAgMBAAGjezB5MAkGA1UdEwQCMAAwLAYJ
YIZIAYb4QgENBB8WHU9wZW5TU0wgR2VuZXJhdGVkIENlcnRpZmljYXRlMB0GA1Ud
DgQWBBTtSPvVha4uqNzGs2D1UEs8DCx1iTAfBgNVHSMEGDAWgBTzlK5kHQKVuzXM
8krTc93f78sW6zANBgkqhkiG9w0BAQUFAAOCAQEAIObXsPeySLCuHdixlw89kOeB
TLytOMx0BMqH8Ghz19PLSwyZAaz44SS4kJSSLP9xEZvlab2Yw9ay7esBRWFv2rGw
gXwNK32nCw3p6MW1J4aUd5HDiiTPqBAH5BixwaCAt8rVemyKhKdE2xIbBfA2TmYD
w1ZpnTyKv1GLvuUPUbDti/SXnlnlRbMmxDUmoUPJJSgGW3/siyCMZhKqRAPrRGVl
XUtULaJlyRgwCzDYQSj/R9SwvmuSDuVp2YWJcWgpunMSPuBmrHsovPl/DoX8crRu
rk/3WVJNGGo498yk5L2xj6VxEMoLWDqGvX/NYHNITTkWo7AZ5tUohp6/a/kKXQ==
-----END CERTIFICATE-----
