Certificate:
    Data:
        Version: 3 (0x2)
        Serial Number: 6 (0x6)
        Signature Algorithm: sha1WithRSAEncryption
        Issuer: C=cn, ST=hubei, L=wuhan, O=dameng, OU=developer, CN=fhx/emailAddress=fhx@demeng.com
        Validity
            Not Before: Jan  1 00:00:00 2022 GMT
            Not After : Jan  1 00:00:00 2032 GMT
        Subject: C=cn, ST=hubei, O=dameng, OU=developer, CN=DMHR/emailAddress=DMHR@dameng.com
        Subject Public Key Info:
            Public Key Algorithm: rsaEncryption
                Public-Key: (2048 bit)
                Modulus:
                    00:cf:1f:8a:e5:c1:c4:d1:c3:ff:cd:7c:56:9e:08:
                    14:7f:a5:17:4e:8d:9a:91:c6:c6:d7:4a:94:02:82:
                    e5:34:5f:8a:8a:73:e5:1a:64:b3:3e:b1:f2:c1:98:
                    8b:2d:6d:0e:c5:bd:d3:a0:b4:2f:be:0d:42:5d:00:
                    fe:29:03:95:54:5c:57:80:17:3c:0f:31:e5:7f:e5:
                    24:8d:2c:83:b7:b9:17:3d:5e:a8:35:13:d3:e5:bf:
                    8a:77:b1:d8:ce:22:1e:b0:dc:eb:8c:e0:4e:7c:a8:
                    00:ad:1d:b6:71:56:47:26:1d:77:28:24:36:b9:db:
                    90:5c:a1:ee:99:03:49:81:97:d1:b0:0e:82:4d:5c:
                    14:ef:3c:76:17:b0:9d:63:76:92:0b:03:31:a7:16:
                    f3:5b:28:d3:7c:bf:3f:42:c1:3e:fd:4a:77:bb:11:
                    86:bc:38:d1:8e:8e:54:31:ae:87:62:b1:27:ad:a1:
                    2d:7d:8c:f6:89:b8:76:4a:9a:60:64:cd:4c:88:cb:
                    4f:fb:1d:e5:0d:5a:cb:4d:c3:78:05:09:94:bb:fc:
                    9a:b8:31:f7:e4:60:5b:a3:45:88:29:90:76:38:0a:
                    12:b8:2f:5d:fc:8f:99:93:75:0b:c5:36:34:44:1e:
                    1c:5f:89:46:60:8a:ef:71:d0:d8:a4:ac:b8:17:a8:
                    93:17
                Exponent: 65537 (0x10001)
        X509v3 extensions:
            X509v3 Basic Constraints: 
                CA:FALSE
            Netscape Comment: 
                OpenSSL Generated Certificate
            X509v3 Subject Key Identifier: 
                08:C8:C6:30:FE:E2:9F:90:72:D1:ED:F8:68:A2:F7:18:9C:5C:5F:46
            X509v3 Authority Key Identifier: 
                keyid:F3:94:AE:64:1D:02:95:BB:35:CC:F2:4A:D3:73:DD:DF:EF:CB:16:EB

    Signature Algorithm: sha1WithRSAEncryption
        64:a7:f4:b7:92:61:fa:1b:4f:55:5f:ab:5c:b2:5f:00:ad:dc:
        25:47:9a:df:a9:10:e0:98:62:67:86:50:1d:ab:91:09:f5:0e:
        ec:bd:18:85:10:59:9f:a6:9d:32:3f:56:ed:f8:49:2a:d3:1f:
        94:91:07:a7:8f:0c:dc:ad:65:43:c5:0a:da:1a:1f:c4:fc:de:
        58:03:3e:8a:5b:1f:f3:8d:c6:b4:c2:8c:1e:76:a2:4b:17:43:
        03:0c:8e:bd:58:3e:14:9d:8f:af:a9:29:e6:52:89:4c:7d:ce:
        7c:b8:8e:f6:7f:cd:cb:9e:bd:0d:f4:07:4c:14:20:80:37:7e:
        ec:37:66:6d:79:92:4e:35:0d:a6:ad:94:df:e1:d3:24:1a:f4:
        aa:98:4f:bb:aa:0c:0f:b3:db:5f:d2:56:96:29:c7:85:29:90:
        e5:0b:87:6f:6d:84:5e:b4:11:7f:97:a0:a9:ff:74:bc:4f:3d:
        2f:3d:bf:05:3e:2c:3e:d6:63:b2:2a:d1:38:74:99:1d:d9:f6:
        f5:e5:18:25:f8:87:85:20:2e:6e:3b:36:f2:1b:6f:29:8c:da:
        26:04:08:82:a6:64:d2:e9:c0:a9:a5:b0:3a:b5:32:b7:76:da:
        22:66:b7:5d:ff:90:5b:d9:f6:74:d2:2b:20:a7:78:65:0f:76:
        b4:a7:7b:52
-----BEGIN CERTIFICATE-----
MIID5jCCAs6gAwIBAgIBBjANBgkqhkiG9w0BAQUFADB/MQswCQYDVQQGEwJjbjEO
MAwGA1UECAwFaHViZWkxDjAMBgNVBAcMBXd1aGFuMQ8wDQYDVQQKDAZkYW1lbmcx
EjAQBgNVBAsMCWRldmVsb3BlcjEMMAoGA1UEAwwDZmh4MR0wGwYJKoZIhvcNAQkB
Fg5maHhAZGVtZW5nLmNvbTAeFw0yMjAxMDEwMDAwMDBaFw0zMjAxMDEwMDAwMDBa
MHExCzAJBgNVBAYTAmNuMQ4wDAYDVQQIDAVodWJlaTEPMA0GA1UECgwGZGFtZW5n
MRIwEAYDVQQLDAlkZXZlbG9wZXIxDTALBgNVBAMMBERNSFIxHjAcBgkqhkiG9w0B
CQEWD0RNSFJAZGFtZW5nLmNvbTCCASIwDQYJKoZIhvcNAQEBBQADggEPADCCAQoC
ggEBAM8fiuXBxNHD/818Vp4IFH+lF06NmpHGxtdKlAKC5TRfiopz5Rpksz6x8sGY
iy1tDsW906C0L74NQl0A/ikDlVRcV4AXPA8x5X/lJI0sg7e5Fz1eqDUT0+W/inex
2M4iHrDc64zgTnyoAK0dtnFWRyYddygkNrnbkFyh7pkDSYGX0bAOgk1cFO88dhew
nWN2kgsDMacW81so03y/P0LBPv1Kd7sRhrw40Y6OVDGuh2KxJ62hLX2M9om4dkqa
YGTNTIjLT/sd5Q1ay03DeAUJlLv8mrgx9+RgW6NFiCmQdjgKErgvXfyPmZN1C8U2
NEQeHF+JRmCK73HQ2KSsuBeokxcCAwEAAaN7MHkwCQYDVR0TBAIwADAsBglghkgB
hvhCAQ0EHxYdT3BlblNTTCBHZW5lcmF0ZWQgQ2VydGlmaWNhdGUwHQYDVR0OBBYE
FAjIxjD+4p+QctHt+Gii9xicXF9GMB8GA1UdIwQYMBaAFPOUrmQdApW7NczyStNz
3d/vyxbrMA0GCSqGSIb3DQEBBQUAA4IBAQBkp/S3kmH6G09VX6tcsl8ArdwlR5rf
qRDgmGJnhlAdq5EJ9Q7svRiFEFmfpp0yP1bt+Ekq0x+UkQenjwzcrWVDxQraGh/E
/N5YAz6KWx/zjca0wowedqJLF0MDDI69WD4UnY+vqSnmUolMfc58uI72f83Lnr0N
9AdMFCCAN37sN2ZteZJONQ2mrZTf4dMkGvSqmE+7qgwPs9tf0laWKceFKZDlC4dv
bYRetBF/l6Cp/3S8Tz0vPb8FPiw+1mOyKtE4dJkd2fb15Rgl+IeFIC5uOzbyG28p
jNomBAiCpmTS6cCppbA6tTK3dtoiZrdd/5Bb2fZ00isgp3hlD3a0p3tS
-----END CERTIFICATE-----
