Certificate:
    Data:
        Version: 3 (0x2)
        Serial Number: 1 (0x1)
        Signature Algorithm: sha1WithRSAEncryption
        Issuer: C=cn, ST=hubei, L=wuhan, O=dameng, OU=developer, CN=fhx/emailAddress=fhx@demeng.com
        Validity
            Not Before: Jan  1 00:00:00 2022 GMT
            Not After : Jan  1 00:00:00 2032 GMT
        Subject: C=cn, ST=hubei, O=dameng, OU=developer, CN=server/emailAddress=server@demeng.com
        Subject Public Key Info:
            Public Key Algorithm: rsaEncryption
                Public-Key: (2048 bit)
                Modulus:
                    00:c4:af:f8:f7:fa:77:d4:d8:ce:8c:6f:c6:7a:86:
                    cf:a2:3f:85:4e:30:53:31:37:a5:d8:ff:f5:6c:ea:
                    5e:ed:aa:02:a9:fe:a2:49:59:b1:c9:7d:aa:01:0d:
                    84:d5:f4:12:dd:91:97:40:7f:f5:49:6e:04:d8:02:
                    77:76:56:f2:a6:7d:df:ea:af:2c:3b:42:a3:34:67:
                    60:fe:61:28:8c:70:93:c6:44:cf:90:51:e2:15:4d:
                    02:6e:ed:ae:57:a7:53:c2:12:5b:d0:83:17:a0:aa:
                    4e:b6:8b:3f:6c:73:78:35:11:0a:0d:e8:b5:79:68:
                    b4:ee:9f:2f:b9:e2:6b:02:3c:53:42:41:e8:08:2e:
                    38:b2:6a:62:4e:58:9f:30:70:99:cf:c1:19:af:6b:
                    80:9b:e3:5b:7c:6d:11:8d:37:3f:a2:e6:15:6b:d4:
                    37:6b:57:8a:bb:69:30:1f:e2:1f:8f:f6:59:f9:4e:
                    20:1a:db:2b:db:00:52:66:96:2c:31:18:67:84:7d:
                    20:9a:4b:bb:33:1b:66:75:01:66:d5:02:73:35:a6:
                    d0:a2:5b:f2:1e:87:a7:50:4d:e3:2f:48:b8:ae:7c:
                    cc:6d:8b:17:2e:21:e0:ca:8a:54:4a:1a:f5:b9:1a:
                    8e:c3:8b:f3:6e:a2:a0:c2:99:3f:75:49:23:86:2b:
                    ba:c1
                Exponent: 65537 (0x10001)
        X509v3 extensions:
            X509v3 Basic Constraints: 
                CA:FALSE
            Netscape Comment: 
                OpenSSL Generated Certificate
            X509v3 Subject Key Identifier: 
                F5:60:CD:BE:4E:65:27:6F:04:6F:56:B2:B6:E5:13:26:1D:FB:5A:75
            X509v3 Authority Key Identifier: 
                keyid:F3:94:AE:64:1D:02:95:BB:35:CC:F2:4A:D3:73:DD:DF:EF:CB:16:EB

    Signature Algorithm: sha1WithRSAEncryption
        68:ad:c6:38:72:cb:48:6e:ea:14:a8:52:5c:b4:68:6a:d2:d5:
        cf:c2:ca:21:94:e1:aa:68:ee:57:6f:ca:8e:0b:96:af:0b:94:
        cd:7a:a8:99:5e:21:17:6e:92:38:8d:81:f8:19:a2:49:94:c6:
        2e:1b:f4:1e:62:d9:74:fc:c2:4e:35:36:f3:1c:c4:b0:95:63:
        c3:52:c6:f6:c5:90:44:38:64:bb:16:48:97:bc:87:f1:2f:eb:
        b4:45:6f:95:cd:fe:87:70:27:8f:d1:cc:eb:ce:d4:bf:de:10:
        68:3c:b3:1c:3d:85:02:40:18:bc:4e:c3:e9:fd:ce:a5:39:48:
        a6:f0:d0:87:8b:3d:5f:db:cf:5b:40:3f:fd:42:fa:16:0d:d1:
        3c:22:bd:5b:9a:7c:d5:8a:51:bb:13:30:3a:03:d6:82:1f:b3:
        61:3a:c0:47:ed:95:8d:6f:bd:77:c7:e1:d9:48:fa:e5:86:78:
        f8:a0:55:31:71:85:24:75:c0:42:ac:c2:6a:f7:ca:36:41:0d:
        2c:69:9e:a0:c7:fe:e9:61:27:3e:50:0f:ab:44:ad:c8:66:1f:
        14:c1:5e:a1:52:0e:ff:1d:f1:fd:b0:a1:5b:43:d0:6a:af:9d:
        4d:7b:11:6d:5c:0e:8b:f2:89:45:ee:b1:d6:8f:7f:31:0e:d1:
        cc:54:e9:d6
-----BEGIN CERTIFICATE-----
MIID6jCCAtKgAwIBAgIBATANBgkqhkiG9w0BAQUFADB/MQswCQYDVQQGEwJjbjEO
MAwGA1UECAwFaHViZWkxDjAMBgNVBAcMBXd1aGFuMQ8wDQYDVQQKDAZkYW1lbmcx
EjAQBgNVBAsMCWRldmVsb3BlcjEMMAoGA1UEAwwDZmh4MR0wGwYJKoZIhvcNAQkB
Fg5maHhAZGVtZW5nLmNvbTAeFw0yMjAxMDEwMDAwMDBaFw0zMjAxMDEwMDAwMDBa
MHUxCzAJBgNVBAYTAmNuMQ4wDAYDVQQIDAVodWJlaTEPMA0GA1UECgwGZGFtZW5n
MRIwEAYDVQQLDAlkZXZlbG9wZXIxDzANBgNVBAMMBnNlcnZlcjEgMB4GCSqGSIb3
DQEJARYRc2VydmVyQGRlbWVuZy5jb20wggEiMA0GCSqGSIb3DQEBAQUAA4IBDwAw
ggEKAoIBAQDEr/j3+nfU2M6Mb8Z6hs+iP4VOMFMxN6XY//Vs6l7tqgKp/qJJWbHJ
faoBDYTV9BLdkZdAf/VJbgTYAnd2VvKmfd/qryw7QqM0Z2D+YSiMcJPGRM+QUeIV
TQJu7a5Xp1PCElvQgxegqk62iz9sc3g1EQoN6LV5aLTuny+54msCPFNCQegILjiy
amJOWJ8wcJnPwRmva4Cb41t8bRGNNz+i5hVr1DdrV4q7aTAf4h+P9ln5TiAa2yvb
AFJmliwxGGeEfSCaS7szG2Z1AWbVAnM1ptCiW/Ieh6dQTeMvSLiufMxtixcuIeDK
ilRKGvW5Go7Di/NuoqDCmT91SSOGK7rBAgMBAAGjezB5MAkGA1UdEwQCMAAwLAYJ
YIZIAYb4QgENBB8WHU9wZW5TU0wgR2VuZXJhdGVkIENlcnRpZmljYXRlMB0GA1Ud
DgQWBBT1YM2+TmUnbwRvVrK25RMmHftadTAfBgNVHSMEGDAWgBTzlK5kHQKVuzXM
8krTc93f78sW6zANBgkqhkiG9w0BAQUFAAOCAQEAaK3GOHLLSG7qFKhSXLRoatLV
z8LKIZThqmjuV2/KjguWrwuUzXqomV4hF26SOI2B+BmiSZTGLhv0HmLZdPzCTjU2
8xzEsJVjw1LG9sWQRDhkuxZIl7yH8S/rtEVvlc3+h3Anj9HM687Uv94QaDyzHD2F
AkAYvE7D6f3OpTlIpvDQh4s9X9vPW0A//UL6Fg3RPCK9W5p81YpRuxMwOgPWgh+z
YTrAR+2VjW+9d8fh2Uj65YZ4+KBVMXGFJHXAQqzCavfKNkENLGmeoMf+6WEnPlAP
q0StyGYfFMFeoVIO/x3x/bChW0PQaq+dTXsRbVwOi/KJRe6x1o9/MQ7RzFTp1g==
-----END CERTIFICATE-----
