Certificate:
    Data:
        Version: 3 (0x2)
        Serial Number: 3 (0x3)
        Signature Algorithm: sha1WithRSAEncryption
        Issuer: C=cn, ST=hubei, L=wuhan, O=dameng, OU=developer, CN=fhx/emailAddress=fhx@demeng.com
        Validity
            Not Before: Jan  1 00:00:00 2022 GMT
            Not After : Jan  1 00:00:00 2032 GMT
        Subject: C=cn, ST=hubei, O=dameng, OU=developer, CN=SYSAUDITOR/emailAddress=SYSAUDITOR@dameng.com
        Subject Public Key Info:
            Public Key Algorithm: rsaEncryption
                Public-Key: (2048 bit)
                Modulus:
                    00:d3:25:f4:5c:0d:e5:89:41:c6:e0:cb:b4:16:99:
                    2f:05:b1:3b:b6:81:8c:96:3d:c1:44:76:4a:bc:b5:
                    b7:36:e9:38:a7:86:89:df:6f:1c:00:84:fd:f8:76:
                    7f:ec:a4:3d:e8:9f:6e:50:bd:88:ca:b5:c4:3c:f6:
                    19:69:c5:8a:e3:31:91:f2:c7:5c:4d:63:48:40:18:
                    59:7f:55:ac:58:e5:ae:8b:88:50:3c:33:3b:10:87:
                    ee:2f:ca:36:59:87:e9:26:af:e7:82:92:44:f0:fe:
                    3b:94:7e:94:58:1d:c0:4c:5e:42:3a:33:12:94:ea:
                    13:aa:47:2b:60:95:8c:1e:ff:09:a8:d4:a0:d6:5a:
                    24:3f:b6:a3:3c:5d:bb:b4:8f:8d:8d:d2:e5:5f:74:
                    02:4a:89:e1:68:7b:5d:c7:20:01:b2:31:11:9f:11:
                    c5:8c:88:59:cd:a3:22:51:d8:c7:76:27:8e:a3:21:
                    e2:de:7e:a9:9d:56:87:c7:65:e5:cf:80:bc:d4:37:
                    06:27:30:01:0d:45:40:67:8a:e4:f4:27:05:70:c4:
                    e6:7a:c3:ed:ca:b7:91:cb:3f:91:b5:3c:16:e4:b9:
                    a9:97:fa:26:fd:5e:05:51:28:7b:f4:ea:75:7c:a9:
                    f1:0c:1a:7c:10:e3:1a:11:8a:3b:17:6f:88:78:80:
                    e1:d7
                Exponent: 65537 (0x10001)
        X509v3 extensions:
            X509v3 Basic Constraints: 
                CA:FALSE
            Netscape Comment: 
                OpenSSL Generated Certificate
            X509v3 Subject Key Identifier: 
                E1:A6:C9:1B:87:81:86:1D:94:7C:60:B9:14:C4:7E:BB:54:3D:BB:13
            X509v3 Authority Key Identifier: 
                keyid:F3:94:AE:64:1D:02:95:BB:35:CC:F2:4A:D3:73:DD:DF:EF:CB:16:EB

    Signature Algorithm: sha1WithRSAEncryption
        3a:52:46:28:93:a4:e4:ce:aa:3a:17:27:e3:13:da:e4:56:53:
        51:a0:b8:a8:3e:a2:41:0a:f2:36:91:35:bb:89:38:33:e8:0a:
        22:c8:7f:1b:db:3b:29:aa:5e:af:34:c5:b3:b7:17:5f:06:95:
        50:8c:db:b7:8b:c6:c8:fe:d8:cb:f5:b1:45:aa:8f:10:da:66:
        75:d2:a0:17:5b:95:0e:39:b6:2b:db:0f:16:68:65:5e:e0:05:
        76:c0:ea:a2:a0:f8:b0:b5:c9:39:4f:52:55:46:fc:bf:6b:5a:
        e1:84:5f:49:8d:aa:26:08:ce:2b:5e:f5:21:7a:ca:0f:94:3e:
        58:c3:40:0e:34:a8:5e:77:c6:15:47:03:c2:e3:94:ca:2c:75:
        43:e2:85:53:11:a1:07:93:d1:10:bc:fd:77:74:66:18:1e:73:
        69:38:83:ed:61:e4:ab:62:82:8a:ac:69:67:6c:3d:2f:e5:41:
        45:29:3a:74:80:dd:2a:bd:0a:ee:8a:89:c4:08:a3:49:4e:71:
        bc:43:b0:47:bd:8e:00:6a:db:57:f2:07:01:7d:1f:9f:1b:dd:
        e7:ce:21:73:0d:6c:80:ec:1a:8c:a4:ba:44:9c:ef:8b:f7:2f:
        0e:e3:7c:c7:ab:cf:05:f9:13:dd:80:5c:cb:f4:22:6f:7a:e1:
        d4:e2:5c:69
-----BEGIN CERTIFICATE-----
MIID8jCCAtqgAwIBAgIBAzANBgkqhkiG9w0BAQUFADB/MQswCQYDVQQGEwJjbjEO
MAwGA1UECAwFaHViZWkxDjAMBgNVBAcMBXd1aGFuMQ8wDQYDVQQKDAZkYW1lbmcx
EjAQBgNVBAsMCWRldmVsb3BlcjEMMAoGA1UEAwwDZmh4MR0wGwYJKoZIhvcNAQkB
Fg5maHhAZGVtZW5nLmNvbTAeFw0yMjAxMDEwMDAwMDBaFw0zMjAxMDEwMDAwMDBa
MH0xCzAJBgNVBAYTAmNuMQ4wDAYDVQQIDAVodWJlaTEPMA0GA1UECgwGZGFtZW5n
MRIwEAYDVQQLDAlkZXZlbG9wZXIxEzARBgNVBAMMClNZU0FVRElUT1IxJDAiBgkq
hkiG9w0BCQEWFVNZU0FVRElUT1JAZGFtZW5nLmNvbTCCASIwDQYJKoZIhvcNAQEB
BQADggEPADCCAQoCggEBANMl9FwN5YlBxuDLtBaZLwWxO7aBjJY9wUR2Sry1tzbp
OKeGid9vHACE/fh2f+ykPeifblC9iMq1xDz2GWnFiuMxkfLHXE1jSEAYWX9VrFjl
rouIUDwzOxCH7i/KNlmH6Sav54KSRPD+O5R+lFgdwExeQjozEpTqE6pHK2CVjB7/
CajUoNZaJD+2ozxdu7SPjY3S5V90AkqJ4Wh7XccgAbIxEZ8RxYyIWc2jIlHYx3Yn
jqMh4t5+qZ1Wh8dl5c+AvNQ3BicwAQ1FQGeK5PQnBXDE5nrD7cq3kcs/kbU8FuS5
qZf6Jv1eBVEoe/TqdXyp8QwafBDjGhGKOxdviHiA4dcCAwEAAaN7MHkwCQYDVR0T
BAIwADAsBglghkgBhvhCAQ0EHxYdT3BlblNTTCBHZW5lcmF0ZWQgQ2VydGlmaWNh
dGUwHQYDVR0OBBYEFOGmyRuHgYYdlHxguRTEfrtUPbsTMB8GA1UdIwQYMBaAFPOU
rmQdApW7NczyStNz3d/vyxbrMA0GCSqGSIb3DQEBBQUAA4IBAQA6UkYok6Tkzqo6
FyfjE9rkVlNRoLioPqJBCvI2kTW7iTgz6AoiyH8b2zspql6vNMWztxdfBpVQjNu3
i8bI/tjL9bFFqo8Q2mZ10qAXW5UOObYr2w8WaGVe4AV2wOqioPiwtck5T1JVRvy/
a1rhhF9JjaomCM4rXvUhesoPlD5Yw0AONKhed8YVRwPC45TKLHVD4oVTEaEHk9EQ
vP13dGYYHnNpOIPtYeSrYoKKrGlnbD0v5UFFKTp0gN0qvQruionECKNJTnG8Q7BH
vY4AattX8gcBfR+fG93nziFzDWyA7BqMpLpEnO+L9y8O43zHq88F+RPdgFzL9CJv
euHU4lxp
-----END CERTIFICATE-----
