Certificate:
    Data:
        Version: 3 (0x2)
        Serial Number: 5 (0x5)
        Signature Algorithm: sha1WithRSAEncryption
        Issuer: C=cn, ST=hubei, L=wuhan, O=dameng, OU=developer, CN=fhx/emailAddress=fhx@demeng.com
        Validity
            Not Before: Jan  1 00:00:00 2022 GMT
            Not After : Jan  1 00:00:00 2032 GMT
        Subject: C=cn, ST=hubei, O=dameng, OU=developer, CN=SYSDBO/emailAddress=SYSDBO@dameng.com
        Subject Public Key Info:
            Public Key Algorithm: rsaEncryption
                Public-Key: (2048 bit)
                Modulus:
                    00:ba:66:2b:68:1b:41:ff:14:c1:0f:a0:3c:13:db:
                    0f:56:41:7b:d2:eb:73:b3:41:75:70:6b:e9:07:1f:
                    62:03:f2:5d:19:8f:b6:c2:8e:58:d7:e2:fd:e1:42:
                    6e:85:7e:0f:aa:2f:fb:9a:ea:ea:22:ed:fc:19:c7:
                    7d:77:3b:aa:70:9e:05:b1:ea:ae:1a:87:aa:61:c2:
                    69:05:d0:af:a2:85:08:ae:d1:54:40:07:54:8e:a7:
                    1c:a2:77:a1:67:d3:c0:69:bb:da:58:68:dd:58:0e:
                    67:a6:7c:c2:02:28:79:8d:5c:f1:1f:5f:e1:24:5f:
                    76:a5:41:0c:65:68:f3:a4:b9:32:1d:51:88:bf:e7:
                    02:73:5e:4b:e7:50:27:36:32:31:26:f9:88:82:c6:
                    81:95:c3:66:35:d2:ef:90:5f:33:67:04:a3:47:8f:
                    06:af:71:b1:32:af:58:14:d7:ab:6e:d2:63:ef:bb:
                    e2:39:50:13:28:12:39:83:83:56:08:3d:21:ca:0e:
                    31:69:ee:3e:12:e4:eb:b8:b3:2d:7d:d3:6f:4a:03:
                    05:82:ef:c6:61:55:dc:d2:02:ac:1b:d1:ef:e9:a3:
                    07:f8:5a:37:96:94:05:92:e3:89:9e:af:10:77:d8:
                    49:25:a1:df:eb:c5:44:c3:22:0f:49:92:6f:da:6b:
                    c2:3b
                Exponent: 65537 (0x10001)
        X509v3 extensions:
            X509v3 Basic Constraints: 
                CA:FALSE
            Netscape Comment: 
                OpenSSL Generated Certificate
            X509v3 Subject Key Identifier: 
                44:04:E9:70:FC:2C:B8:84:EF:6E:28:65:EF:B8:B3:1C:79:54:4F:02
            X509v3 Authority Key Identifier: 
                keyid:F3:94:AE:64:1D:02:95:BB:35:CC:F2:4A:D3:73:DD:DF:EF:CB:16:EB

    Signature Algorithm: sha1WithRSAEncryption
        84:1c:83:4e:11:6c:f4:8f:fc:ea:bd:40:e4:b3:04:9c:da:ea:
        2e:be:49:64:91:75:1c:61:1b:cd:2c:0b:1b:bd:86:c0:bc:a5:
        a4:2d:d8:97:7c:11:56:65:e3:09:e9:b9:a0:0b:b7:a4:5b:64:
        8d:bd:eb:90:a2:dd:c1:07:28:4a:8c:1c:fb:df:d2:55:72:08:
        e9:96:14:da:d1:40:73:1c:10:3d:d0:77:eb:d0:02:f6:91:da:
        5c:04:01:dc:66:23:16:d5:60:e3:cc:86:58:1e:8f:40:7d:6d:
        25:17:90:e7:2c:1c:c7:34:cd:5c:d2:a2:a9:61:98:78:47:39:
        37:2e:53:34:ee:08:58:3e:55:29:19:5e:44:c6:46:08:44:1a:
        e3:5a:77:58:ba:30:76:52:92:c6:5d:de:a3:52:a1:8d:6a:39:
        ef:f3:cf:cc:76:50:63:28:c7:d8:24:ff:5a:ae:42:5f:be:58:
        39:1f:02:c2:8a:85:9a:70:bc:3a:22:6a:af:2e:57:f7:2f:97:
        77:7d:2a:a7:18:a7:16:60:9b:c9:9a:ff:8d:09:30:42:32:6b:
        0e:02:d7:7a:49:24:b5:e2:e2:41:db:05:8f:b6:61:2a:90:60:
        b2:da:6d:8e:0e:25:1f:3b:e8:31:cf:b4:9d:31:d5:81:6c:69:
        b8:58:e3:60
-----BEGIN CERTIFICATE-----
MIID6jCCAtKgAwIBAgIBBTANBgkqhkiG9w0BAQUFADB/MQswCQYDVQQGEwJjbjEO
MAwGA1UECAwFaHViZWkxDjAMBgNVBAcMBXd1aGFuMQ8wDQYDVQQKDAZkYW1lbmcx
EjAQBgNVBAsMCWRldmVsb3BlcjEMMAoGA1UEAwwDZmh4MR0wGwYJKoZIhvcNAQkB
Fg5maHhAZGVtZW5nLmNvbTAeFw0yMjAxMDEwMDAwMDBaFw0zMjAxMDEwMDAwMDBa
MHUxCzAJBgNVBAYTAmNuMQ4wDAYDVQQIDAVodWJlaTEPMA0GA1UECgwGZGFtZW5n
MRIwEAYDVQQLDAlkZXZlbG9wZXIxDzANBgNVBAMMBlNZU0RCTzEgMB4GCSqGSIb3
DQEJARYRU1lTREJPQGRhbWVuZy5jb20wggEiMA0GCSqGSIb3DQEBAQUAA4IBDwAw
ggEKAoIBAQC6ZitoG0H/FMEPoDwT2w9WQXvS63OzQXVwa+kHH2ID8l0Zj7bCjljX
4v3hQm6Ffg+qL/ua6uoi7fwZx313O6pwngWx6q4ah6phwmkF0K+ihQiu0VRAB1SO
pxyid6Fn08Bpu9pYaN1YDmemfMICKHmNXPEfX+EkX3alQQxlaPOkuTIdUYi/5wJz
XkvnUCc2MjEm+YiCxoGVw2Y10u+QXzNnBKNHjwavcbEyr1gU16tu0mPvu+I5UBMo
EjmDg1YIPSHKDjFp7j4S5Ou4sy19029KAwWC78ZhVdzSAqwb0e/powf4WjeWlAWS
44merxB32Eklod/rxUTDIg9Jkm/aa8I7AgMBAAGjezB5MAkGA1UdEwQCMAAwLAYJ
YIZIAYb4QgENBB8WHU9wZW5TU0wgR2VuZXJhdGVkIENlcnRpZmljYXRlMB0GA1Ud
DgQWBBREBOlw/Cy4hO9uKGXvuLMceVRPAjAfBgNVHSMEGDAWgBTzlK5kHQKVuzXM
8krTc93f78sW6zANBgkqhkiG9w0BAQUFAAOCAQEAhByDThFs9I/86r1A5LMEnNrq
Lr5JZJF1HGEbzSwLG72GwLylpC3Yl3wRVmXjCem5oAu3pFtkjb3rkKLdwQcoSowc
+9/SVXII6ZYU2tFAcxwQPdB369AC9pHaXAQB3GYjFtVg48yGWB6PQH1tJReQ5ywc
xzTNXNKiqWGYeEc5Ny5TNO4IWD5VKRleRMZGCEQa41p3WLowdlKSxl3eo1KhjWo5
7/PPzHZQYyjH2CT/Wq5CX75YOR8CwoqFmnC8OiJqry5X9y+Xd30qpxinFmCbyZr/
jQkwQjJrDgLXekkkteLiQdsFj7ZhKpBgstptjg4lHzvoMc+0nTHVgWxpuFjjYA==
-----END CERTIFICATE-----
