Certificate:
    Data:
        Version: 3 (0x2)
        Serial Number: 7 (0x7)
        Signature Algorithm: sha1WithRSAEncryption
        Issuer: C=cn, ST=hubei, L=wuhan, O=dameng, OU=developer, CN=fhx/emailAddress=fhx@demeng.com
        Validity
            Not Before: Jan  1 00:00:00 2022 GMT
            Not After : Jan  1 00:00:00 2032 GMT
        Subject: C=cn, ST=hubei, O=dameng, OU=developer, CN=DEVELOP/emailAddress=DEVELOP@dameng.com
        Subject Public Key Info:
            Public Key Algorithm: rsaEncryption
                Public-Key: (2048 bit)
                Modulus:
                    00:c2:87:da:3a:25:b2:a3:d2:c7:b5:d6:82:7d:82:
                    f8:ba:d8:03:8b:a4:5d:96:b5:c2:52:0c:60:a3:c0:
                    41:df:a1:76:81:4a:a9:3c:27:5c:69:f6:e4:56:8f:
                    48:19:4b:9c:8b:d4:6e:9a:2a:f9:e4:ac:14:6d:43:
                    63:99:7b:73:c5:a0:61:ce:cd:db:c0:66:39:e1:86:
                    1c:e5:c1:74:6c:92:db:b7:c7:37:44:d0:d6:78:ac:
                    7f:42:c3:3e:66:94:00:28:fe:54:ca:0f:46:5e:58:
                    97:7b:8f:88:20:eb:5b:c4:fa:4c:f5:38:a7:03:e6:
                    2a:44:df:d4:6d:3a:a5:df:c1:32:f6:7a:e5:26:5c:
                    ea:ef:db:ce:e9:01:26:6c:75:67:3f:a6:64:88:34:
                    9f:b6:a2:2f:87:26:e2:8d:ef:81:fb:30:ce:f1:a2:
                    c6:c2:35:8e:9d:52:68:10:1d:71:be:51:08:a1:5a:
                    25:47:0a:08:d3:49:ac:f8:7c:5c:f6:77:c1:7f:ef:
                    89:dd:f4:ec:65:99:54:39:bb:03:70:65:ae:a6:34:
                    34:ea:e6:73:4d:3c:46:73:2c:c8:b6:e0:17:3e:8b:
                    d9:23:97:6b:b2:81:3d:e4:08:82:5e:7b:5c:e6:53:
                    b8:4d:9f:24:0c:71:8d:73:ee:87:27:77:1f:66:16:
                    e9:0d
                Exponent: 65537 (0x10001)
        X509v3 extensions:
            X509v3 Basic Constraints: 
                CA:FALSE
            Netscape Comment: 
                OpenSSL Generated Certificate
            X509v3 Subject Key Identifier: 
                FF:89:6A:38:A9:04:91:64:8A:46:0B:29:7F:37:E2:EF:52:C6:68:7F
            X509v3 Authority Key Identifier: 
                keyid:F3:94:AE:64:1D:02:95:BB:35:CC:F2:4A:D3:73:DD:DF:EF:CB:16:EB

    Signature Algorithm: sha1WithRSAEncryption
        0c:0a:e2:fe:38:e5:08:f2:8d:e9:47:d8:1c:05:3f:e2:73:0e:
        52:f7:9a:04:be:07:4d:c6:73:09:70:ab:dd:42:6d:29:a9:05:
        7e:cf:ff:ff:cd:91:05:98:20:a5:86:6b:74:97:e1:db:a0:51:
        f0:15:7d:20:b2:5a:61:ef:23:a2:da:54:11:72:98:4f:70:82:
        d3:b4:c2:9a:cc:24:f8:dd:e1:74:12:91:05:88:96:c3:92:47:
        7b:65:a6:43:fa:33:40:48:b8:24:70:8b:83:b6:9c:88:eb:c1:
        9b:3f:ed:93:6f:2d:1e:f1:62:19:a3:56:95:f4:01:d4:5d:f8:
        b2:ca:13:36:d6:16:e6:dc:9b:ff:22:06:31:4e:fe:9e:72:dc:
        3d:df:2d:e9:5f:1f:a7:fc:2a:8c:47:05:16:e4:89:9e:d0:e6:
        1a:d4:59:42:de:46:ea:c4:71:58:77:03:d1:0c:e6:a2:d7:dc:
        1a:95:2e:c6:6d:62:7e:68:d7:c7:ec:01:40:fa:6f:5a:e4:75:
        d3:e0:9c:cf:7c:3a:57:a1:f8:2e:fd:df:7f:4c:9c:60:41:40:
        22:24:be:07:00:1c:82:8b:68:6e:aa:98:7d:5a:a0:a0:9d:1a:
        9a:ad:0d:f4:85:f7:dc:04:cb:15:e4:ad:a7:d5:00:1b:b4:a0:
        72:b0:d0:d5
-----BEGIN CERTIFICATE-----
MIID7DCCAtSgAwIBAgIBBzANBgkqhkiG9w0BAQUFADB/MQswCQYDVQQGEwJjbjEO
MAwGA1UECAwFaHViZWkxDjAMBgNVBAcMBXd1aGFuMQ8wDQYDVQQKDAZkYW1lbmcx
EjAQBgNVBAsMCWRldmVsb3BlcjEMMAoGA1UEAwwDZmh4MR0wGwYJKoZIhvcNAQkB
Fg5maHhAZGVtZW5nLmNvbTAeFw0yMjAxMDEwMDAwMDBaFw0zMjAxMDEwMDAwMDBa
MHcxCzAJBgNVBAYTAmNuMQ4wDAYDVQQIDAVodWJlaTEPMA0GA1UECgwGZGFtZW5n
MRIwEAYDVQQLDAlkZXZlbG9wZXIxEDAOBgNVBAMMB0RFVkVMT1AxITAfBgkqhkiG
9w0BCQEWEkRFVkVMT1BAZGFtZW5nLmNvbTCCASIwDQYJKoZIhvcNAQEBBQADggEP
ADCCAQoCggEBAMKH2jolsqPSx7XWgn2C+LrYA4ukXZa1wlIMYKPAQd+hdoFKqTwn
XGn25FaPSBlLnIvUbpoq+eSsFG1DY5l7c8WgYc7N28BmOeGGHOXBdGyS27fHN0TQ
1nisf0LDPmaUACj+VMoPRl5Yl3uPiCDrW8T6TPU4pwPmKkTf1G06pd/BMvZ65SZc
6u/bzukBJmx1Zz+mZIg0n7aiL4cm4o3vgfswzvGixsI1jp1SaBAdcb5RCKFaJUcK
CNNJrPh8XPZ3wX/vid307GWZVDm7A3BlrqY0NOrmc008RnMsyLbgFz6L2SOXa7KB
PeQIgl57XOZTuE2fJAxxjXPuhyd3H2YW6Q0CAwEAAaN7MHkwCQYDVR0TBAIwADAs
BglghkgBhvhCAQ0EHxYdT3BlblNTTCBHZW5lcmF0ZWQgQ2VydGlmaWNhdGUwHQYD
VR0OBBYEFP+JajipBJFkikYLKX834u9Sxmh/MB8GA1UdIwQYMBaAFPOUrmQdApW7
NczyStNz3d/vyxbrMA0GCSqGSIb3DQEBBQUAA4IBAQAMCuL+OOUI8o3pR9gcBT/i
cw5S95oEvgdNxnMJcKvdQm0pqQV+z///zZEFmCClhmt0l+HboFHwFX0gslph7yOi
2lQRcphPcILTtMKazCT43eF0EpEFiJbDkkd7ZaZD+jNASLgkcIuDtpyI68GbP+2T
by0e8WIZo1aV9AHUXfiyyhM21hbm3Jv/IgYxTv6ectw93y3pXx+n/CqMRwUW5Ime
0OYa1FlC3kbqxHFYdwPRDOai19walS7GbWJ+aNfH7AFA+m9a5HXT4JzPfDpXofgu
/d9/TJxgQUAiJL4HAByCi2huqph9WqCgnRqarQ30hffcBMsV5K2n1QAbtKBysNDV
-----END CERTIFICATE-----
